target datalayout = "e-m:e-p270:32:32-p271:32:32-p272:64:64-i64:64-i128:128-f80:128-n8:16:32:64-S128"
target triple = "x86_64-pc-linux-gnu"

; Function Attrs: nounwind uwtable
define void @resetPCanonPermArray_6Vars(ptr noundef %0) #0 {
  %2 = alloca ptr, align 8
  store ptr %0, ptr %2, align 8, !tbaa !3
  %3 = load ptr, ptr %2, align 8, !tbaa !3
  %4 = getelementptr inbounds i8, ptr %3, i64 0
  store i8 97, ptr %4, align 1, !tbaa !8
  %5 = load ptr, ptr %2, align 8, !tbaa !3
  %6 = getelementptr inbounds i8, ptr %5, i64 1
  store i8 98, ptr %6, align 1, !tbaa !8
  %7 = load ptr, ptr %2, align 8, !tbaa !3
  %8 = getelementptr inbounds i8, ptr %7, i64 2
  store i8 99, ptr %8, align 1, !tbaa !8
  %9 = load ptr, ptr %2, align 8, !tbaa !3
  %10 = getelementptr inbounds i8, ptr %9, i64 3
  store i8 100, ptr %10, align 1, !tbaa !8
  %11 = load ptr, ptr %2, align 8, !tbaa !3
  %12 = getelementptr inbounds i8, ptr %11, i64 4
  store i8 101, ptr %12, align 1, !tbaa !8
  %13 = load ptr, ptr %2, align 8, !tbaa !3
  %14 = getelementptr inbounds i8, ptr %13, i64 5
  store i8 102, ptr %14, align 1, !tbaa !8
  ret void
}