; Function Attrs: mustprogress nofree norecurse nosync nounwind willreturn memory(argmem: write) uwtable
define void @resetPCanonPermArray_6Vars(ptr noundef writeonly captures(none) initializes((0, 6)) %0) local_unnamed_addr #0 {
  store i8 97, ptr %0, align 1, !tbaa !3
  %2 = getelementptr inbounds nuw i8, ptr %0, i64 1
  store i8 98, ptr %2, align 1, !tbaa !3
  %3 = getelementptr inbounds nuw i8, ptr %0, i64 2
  store i8 99, ptr %3, align 1, !tbaa !3
  %4 = getelementptr inbounds nuw i8, ptr %0, i64 3
  store i8 100, ptr %4, align 1, !tbaa !3
  %5 = getelementptr inbounds nuw i8, ptr %0, i64 4
  store i8 101, ptr %5, align 1, !tbaa !3
  %6 = getelementptr inbounds nuw i8, ptr %0, i64 5
  store i8 102, ptr %6, align 1, !tbaa !3
  ret void
}